target datalayout = "e-m:e-p270:32:32-p271:32:32-p272:64:64-i64:64-i128:128-f80:128-n8:16:32:64-S128"
target triple = "x86_64-pc-linux-gnu"

%struct._priv_exr_context_t = type { i8, i8, i8, i8, i8, i8, i8, i8, %struct.exr_attr_string_t, %struct.exr_attr_string_t, ptr, ptr, ptr, ptr, ptr, ptr, ptr, ptr, i32, i32, i32, i32, i32, float, ptr, ptr, ptr, i64, ptr, ptr, i64, i32, i32, i32, i32, %struct._priv_exr_part_t, ptr, ptr, %struct.exr_attribute_list, %union.pthread_mutex_t, i8, i8, [2 x i8], i32 }
%struct.exr_attr_string_t = type { i32, i32, ptr }
%struct._priv_exr_part_t = type { i32, i32, %struct.exr_attribute_list, ptr, ptr, ptr, ptr, ptr, ptr, ptr, ptr, ptr, ptr, ptr, ptr, ptr, ptr, %struct.exr_attr_box2i_t, %struct.exr_attr_box2i_t, i32, i32, i32, float, i32, i32, ptr, ptr, ptr, ptr, i64, i16, i16, i32, i64, i64 }
%struct.exr_attr_box2i_t = type { %struct.exr_attr_v2i_t, %struct.exr_attr_v2i_t }
%struct.exr_attr_v2i_t = type { i32, i32 }
%struct.exr_attribute_list = type { i32, i32, ptr, ptr }
%union.pthread_mutex_t = type { %struct.__pthread_mutex_s }
%struct.__pthread_mutex_s = type { i32, i32, i32, i32, i32, i16, i16, %struct.__pthread_internal_list }
%struct.__pthread_internal_list = type { ptr, ptr }
%struct.exr_attribute_t = type { ptr, ptr, i8, i8, [2 x i8], i32, %union.anon }
%union.anon = type { double }
%struct.exr_attr_float_vector_t = type { i32, i32, ptr }

; Function Attrs: inlinehint nounwind uwtable
define internal void @priv_from_native32(ptr noundef %0, i32 noundef %1) #2 {
  %3 = alloca ptr, align 8
  %4 = alloca i32, align 4
  store ptr %0, ptr %3, align 8, !tbaa !32
  store i32 %1, ptr %4, align 4, !tbaa !10
  ret void
}

; Function Attrs: inlinehint nounwind uwtable
define internal void @priv_to_native32(ptr noundef %0, i32 noundef %1) #2 {
  %3 = alloca ptr, align 8
  %4 = alloca i32, align 4
  store ptr %0, ptr %3, align 8, !tbaa !32
  store i32 %1, ptr %4, align 4, !tbaa !10
  ret void
}

; Function Attrs: nounwind uwtable
define internal i32 @save_attr_32(ptr noundef %0, ptr noundef %1, i32 noundef %2) #0 {
  %4 = alloca ptr, align 8
  %5 = alloca ptr, align 8
  %6 = alloca i32, align 4
  store ptr %0, ptr %4, align 8, !tbaa !3
  store ptr %1, ptr %5, align 8, !tbaa !32
  store i32 %2, ptr %6, align 4, !tbaa !10
  %7 = load ptr, ptr %5, align 8, !tbaa !32
  %8 = load i32, ptr %6, align 4, !tbaa !10
  call void @priv_from_native32(ptr noundef %7, i32 noundef %8)
  %9 = load ptr, ptr %4, align 8, !tbaa !3
  %10 = getelementptr inbounds nuw %struct._priv_exr_context_t, ptr %9, i32 0, i32 11
  %11 = load ptr, ptr %10, align 8, !tbaa !49
  %12 = load ptr, ptr %4, align 8, !tbaa !3
  %13 = load ptr, ptr %5, align 8, !tbaa !32
  %14 = load i32, ptr %6, align 4, !tbaa !10
  %15 = sext i32 %14 to i64
  %16 = mul i64 4, %15
  %17 = load ptr, ptr %4, align 8, !tbaa !3
  %18 = getelementptr inbounds nuw %struct._priv_exr_context_t, ptr %17, i32 0, i32 30
  %19 = call i32 %11(ptr noundef %12, ptr noundef %13, i64 noundef %16, ptr noundef %18)
  ret i32 %19
}

; Function Attrs: nounwind uwtable
define internal i32 @save_attr_sz(ptr noundef %0, i64 noundef %1) #0 {
  %3 = alloca i32, align 4
  %4 = alloca ptr, align 8
  %5 = alloca i64, align 8
  %6 = alloca i32, align 4
  %7 = alloca i32, align 4
  store ptr %0, ptr %4, align 8, !tbaa !3
  store i64 %1, ptr %5, align 8, !tbaa !61
  call void @llvm.lifetime.start.p0(i64 4, ptr %6) #6
  %8 = load i64, ptr %5, align 8, !tbaa !61
  %9 = icmp ugt i64 %8, 2147483647
  br i1 %9, label %10, label %16

10:                                               ; preds = %2
  %11 = load ptr, ptr %4, align 8, !tbaa !3
  %12 = getelementptr inbounds nuw %struct._priv_exr_context_t, ptr %11, i32 0, i32 12
  %13 = load ptr, ptr %12, align 8, !tbaa !57
  %14 = load ptr, ptr %4, align 8, !tbaa !3
  %15 = call i32 %13(ptr noundef %14, i32 noundef 3)
  store i32 %15, ptr %3, align 4
  store i32 1, ptr %7, align 4
  br label %26

16:                                               ; preds = %2
  %17 = load i64, ptr %5, align 8, !tbaa !61
  %18 = trunc i64 %17 to i32
  store i32 %18, ptr %6, align 4, !tbaa !10
  call void @priv_from_native32(ptr noundef %6, i32 noundef 1)
  %19 = load ptr, ptr %4, align 8, !tbaa !3
  %20 = getelementptr inbounds nuw %struct._priv_exr_context_t, ptr %19, i32 0, i32 11
  %21 = load ptr, ptr %20, align 8, !tbaa !49
  %22 = load ptr, ptr %4, align 8, !tbaa !3
  %23 = load ptr, ptr %4, align 8, !tbaa !3
  %24 = getelementptr inbounds nuw %struct._priv_exr_context_t, ptr %23, i32 0, i32 30
  %25 = call i32 %21(ptr noundef %22, ptr noundef %6, i64 noundef 4, ptr noundef %24)
  store i32 %25, ptr %3, align 4
  store i32 1, ptr %7, align 4
  br label %26

26:                                               ; preds = %16, %10
  call void @llvm.lifetime.end.p0(i64 4, ptr %6) #6
  %27 = load i32, ptr %3, align 4
  ret i32 %27
}

; Function Attrs: nounwind uwtable
define internal i32 @save_float_vector(ptr noundef %0, ptr noundef %1) #0 {
  %3 = alloca i32, align 4
  %4 = alloca ptr, align 8
  %5 = alloca ptr, align 8
  %6 = alloca i32, align 4
  %7 = alloca ptr, align 8
  %8 = alloca i32, align 4
  store ptr %0, ptr %4, align 8, !tbaa !3
  store ptr %1, ptr %5, align 8, !tbaa !32
  call void @llvm.lifetime.start.p0(i64 4, ptr %6) #6
  %9 = load ptr, ptr %4, align 8, !tbaa !3
  %10 = load ptr, ptr %5, align 8, !tbaa !32
  %11 = getelementptr inbounds nuw %struct.exr_attribute_t, ptr %10, i32 0, i32 6
  %12 = load ptr, ptr %11, align 8, !tbaa !37
  %13 = getelementptr inbounds nuw %struct.exr_attr_float_vector_t, ptr %12, i32 0, i32 0
  %14 = load i32, ptr %13, align 8, !tbaa !72
  %15 = sext i32 %14 to i64
  %16 = mul i64 4, %15
  %17 = call i32 @save_attr_sz(ptr noundef %9, i64 noundef %16)
  store i32 %17, ptr %6, align 4, !tbaa !10
  %18 = load i32, ptr %6, align 4, !tbaa !10
  %19 = icmp eq i32 %18, 0
  br i1 %19, label %20, label %111

20:                                               ; preds = %2
  %21 = load ptr, ptr %5, align 8, !tbaa !32
  %22 = getelementptr inbounds nuw %struct.exr_attribute_t, ptr %21, i32 0, i32 6
  %23 = load ptr, ptr %22, align 8, !tbaa !37
  %24 = getelementptr inbounds nuw %struct.exr_attr_float_vector_t, ptr %23, i32 0, i32 0
  %25 = load i32, ptr %24, align 8, !tbaa !72
  %26 = icmp sgt i32 %25, 0
  br i1 %26, label %27, label %111

27:                                               ; preds = %20
  %28 = load ptr, ptr %5, align 8, !tbaa !32
  %29 = getelementptr inbounds nuw %struct.exr_attribute_t, ptr %28, i32 0, i32 6
  %30 = load ptr, ptr %29, align 8, !tbaa !37
  %31 = getelementptr inbounds nuw %struct.exr_attr_float_vector_t, ptr %30, i32 0, i32 1
  %32 = load i32, ptr %31, align 4, !tbaa !75
  %33 = icmp sgt i32 %32, 0
  br i1 %33, label %34, label %61

34:                                               ; preds = %27
  %35 = load ptr, ptr %4, align 8, !tbaa !3
  %36 = load ptr, ptr %5, align 8, !tbaa !32
  %37 = getelementptr inbounds nuw %struct.exr_attribute_t, ptr %36, i32 0, i32 6
  %38 = load ptr, ptr %37, align 8, !tbaa !37
  %39 = getelementptr inbounds nuw %struct.exr_attr_float_vector_t, ptr %38, i32 0, i32 2
  %40 = load ptr, ptr %39, align 8, !tbaa !76
  %41 = ptrtoint ptr %40 to i64
  %42 = inttoptr i64 %41 to ptr
  %43 = load ptr, ptr %5, align 8, !tbaa !32
  %44 = getelementptr inbounds nuw %struct.exr_attribute_t, ptr %43, i32 0, i32 6
  %45 = load ptr, ptr %44, align 8, !tbaa !37
  %46 = getelementptr inbounds nuw %struct.exr_attr_float_vector_t, ptr %45, i32 0, i32 0
  %47 = load i32, ptr %46, align 8, !tbaa !72
  %48 = call i32 @save_attr_32(ptr noundef %35, ptr noundef %42, i32 noundef %47)
  store i32 %48, ptr %6, align 4, !tbaa !10
  %49 = load ptr, ptr %5, align 8, !tbaa !32
  %50 = getelementptr inbounds nuw %struct.exr_attribute_t, ptr %49, i32 0, i32 6
  %51 = load ptr, ptr %50, align 8, !tbaa !37
  %52 = getelementptr inbounds nuw %struct.exr_attr_float_vector_t, ptr %51, i32 0, i32 2
  %53 = load ptr, ptr %52, align 8, !tbaa !76
  %54 = ptrtoint ptr %53 to i64
  %55 = inttoptr i64 %54 to ptr
  %56 = load ptr, ptr %5, align 8, !tbaa !32
  %57 = getelementptr inbounds nuw %struct.exr_attribute_t, ptr %56, i32 0, i32 6
  %58 = load ptr, ptr %57, align 8, !tbaa !37
  %59 = getelementptr inbounds nuw %struct.exr_attr_float_vector_t, ptr %58, i32 0, i32 0
  %60 = load i32, ptr %59, align 8, !tbaa !72
  call void @priv_to_native32(ptr noundef %55, i32 noundef %60)
  br label %110

61:                                               ; preds = %27
  call void @llvm.lifetime.start.p0(i64 8, ptr %7) #6
  %62 = load ptr, ptr %4, align 8, !tbaa !3
  %63 = getelementptr inbounds nuw %struct._priv_exr_context_t, ptr %62, i32 0, i32 16
  %64 = load ptr, ptr %63, align 8, !tbaa !77
  %65 = load ptr, ptr %5, align 8, !tbaa !32
  %66 = getelementptr inbounds nuw %struct.exr_attribute_t, ptr %65, i32 0, i32 6
  %67 = load ptr, ptr %66, align 8, !tbaa !37
  %68 = getelementptr inbounds nuw %struct.exr_attr_float_vector_t, ptr %67, i32 0, i32 0
  %69 = load i32, ptr %68, align 8, !tbaa !72
  %70 = sext i32 %69 to i64
  %71 = mul i64 %70, 4
  %72 = call ptr %64(i64 noundef %71)
  store ptr %72, ptr %7, align 8, !tbaa !78
  %73 = load ptr, ptr %7, align 8, !tbaa !78
  %74 = icmp eq ptr %73, null
  br i1 %74, label %75, label %81

75:                                               ; preds = %61
  %76 = load ptr, ptr %4, align 8, !tbaa !3
  %77 = getelementptr inbounds nuw %struct._priv_exr_context_t, ptr %76, i32 0, i32 12
  %78 = load ptr, ptr %77, align 8, !tbaa !57
  %79 = load ptr, ptr %4, align 8, !tbaa !3
  %80 = call i32 %78(ptr noundef %79, i32 noundef 1)
  store i32 %80, ptr %3, align 4
  store i32 1, ptr %8, align 4
  br label %107

81:                                               ; preds = %61
  %82 = load ptr, ptr %7, align 8, !tbaa !78
  %83 = load ptr, ptr %5, align 8, !tbaa !32
  %84 = getelementptr inbounds nuw %struct.exr_attribute_t, ptr %83, i32 0, i32 6
  %85 = load ptr, ptr %84, align 8, !tbaa !37
  %86 = getelementptr inbounds nuw %struct.exr_attr_float_vector_t, ptr %85, i32 0, i32 2
  %87 = load ptr, ptr %86, align 8, !tbaa !76
  %88 = load ptr, ptr %5, align 8, !tbaa !32
  %89 = getelementptr inbounds nuw %struct.exr_attribute_t, ptr %88, i32 0, i32 6
  %90 = load ptr, ptr %89, align 8, !tbaa !37
  %91 = getelementptr inbounds nuw %struct.exr_attr_float_vector_t, ptr %90, i32 0, i32 0
  %92 = load i32, ptr %91, align 8, !tbaa !72
  %93 = sext i32 %92 to i64
  %94 = mul i64 %93, 4
  call void @llvm.memcpy.p0.p0.i64(ptr align 4 %82, ptr align 4 %87, i64 %94, i1 false)
  %95 = load ptr, ptr %4, align 8, !tbaa !3
  %96 = load ptr, ptr %7, align 8, !tbaa !78
  %97 = load ptr, ptr %5, align 8, !tbaa !32
  %98 = getelementptr inbounds nuw %struct.exr_attribute_t, ptr %97, i32 0, i32 6
  %99 = load ptr, ptr %98, align 8, !tbaa !37
  %100 = getelementptr inbounds nuw %struct.exr_attr_float_vector_t, ptr %99, i32 0, i32 0
  %101 = load i32, ptr %100, align 8, !tbaa !72
  %102 = call i32 @save_attr_32(ptr noundef %95, ptr noundef %96, i32 noundef %101)
  store i32 %102, ptr %6, align 4, !tbaa !10
  %103 = load ptr, ptr %4, align 8, !tbaa !3
  %104 = getelementptr inbounds nuw %struct._priv_exr_context_t, ptr %103, i32 0, i32 17
  %105 = load ptr, ptr %104, align 8, !tbaa !79
  %106 = load ptr, ptr %7, align 8, !tbaa !78
  call void %105(ptr noundef %106)
  store i32 0, ptr %8, align 4
  br label %107

107:                                              ; preds = %81, %75
  call void @llvm.lifetime.end.p0(i64 8, ptr %7) #6
  %108 = load i32, ptr %8, align 4
  switch i32 %108, label %113 [
    i32 0, label %109
  ]

109:                                              ; preds = %107
  br label %110

110:                                              ; preds = %109, %34
  br label %111

111:                                              ; preds = %110, %20, %2
  %112 = load i32, ptr %6, align 4, !tbaa !10
  store i32 %112, ptr %3, align 4
  store i32 1, ptr %8, align 4
  br label %113

113:                                              ; preds = %111, %107
  call void @llvm.lifetime.end.p0(i64 4, ptr %6) #6
  %114 = load i32, ptr %3, align 4
  ret i32 %114
}