; Function Attrs: nounwind uwtable
define internal fastcc i32 @save_float_vector(ptr noundef %0, ptr noundef readonly captures(none) %1) unnamed_addr #2 {
  %3 = alloca i32, align 4
  %4 = getelementptr inbounds nuw i8, ptr %1, i64 24
  %5 = load ptr, ptr %4, align 8, !tbaa !35
  %6 = load i32, ptr %5, align 8, !tbaa !68
  %7 = sext i32 %6 to i64
  %8 = shl nsw i64 %7, 2
  call void @llvm.lifetime.start.p0(i64 4, ptr nonnull %3) #6
  %9 = icmp ugt i64 %8, 2147483647
  br i1 %9, label %10, label %14

10:                                               ; preds = %2
  %11 = getelementptr inbounds nuw i8, ptr %0, i64 56
  %12 = load ptr, ptr %11, align 8, !tbaa !54
  %13 = tail call i32 %12(ptr noundef %0, i32 noundef 3) #6
  br label %save_attr_sz.exit

14:                                               ; preds = %2
  %15 = trunc nuw nsw i64 %8 to i32
  store i32 %15, ptr %3, align 4, !tbaa !43
  %16 = getelementptr inbounds nuw i8, ptr %0, i64 48
  %17 = load ptr, ptr %16, align 8, !tbaa !46
  %18 = getelementptr inbounds nuw i8, ptr %0, i64 176
  %19 = call i32 %17(ptr noundef %0, ptr noundef nonnull %3, i64 noundef 4, ptr noundef nonnull %18) #6
  br label %save_attr_sz.exit

save_attr_sz.exit:                                ; preds = %10, %14
  %.0.i = phi i32 [ %13, %10 ], [ %19, %14 ]
  call void @llvm.lifetime.end.p0(i64 4, ptr nonnull %3) #6
  %20 = icmp eq i32 %.0.i, 0
  br i1 %20, label %21, label %65

21:                                               ; preds = %save_attr_sz.exit
  %22 = load ptr, ptr %4, align 8, !tbaa !35
  %23 = load i32, ptr %22, align 8, !tbaa !68
  %24 = icmp sgt i32 %23, 0
  br i1 %24, label %25, label %65

25:                                               ; preds = %21
  %26 = getelementptr inbounds nuw i8, ptr %22, i64 4
  %27 = load i32, ptr %26, align 4, !tbaa !71
  %28 = icmp sgt i32 %27, 0
  br i1 %28, label %29, label %38

29:                                               ; preds = %25
  %30 = getelementptr inbounds nuw i8, ptr %22, i64 8
  %31 = load ptr, ptr %30, align 8, !tbaa !72
  %32 = getelementptr inbounds nuw i8, ptr %0, i64 48
  %33 = load ptr, ptr %32, align 8, !tbaa !46
  %34 = zext nneg i32 %23 to i64
  %35 = shl nuw nsw i64 %34, 2
  %36 = getelementptr inbounds nuw i8, ptr %0, i64 176
  %37 = call i32 %33(ptr noundef nonnull %0, ptr noundef %31, i64 noundef %35, ptr noundef nonnull %36) #6
  br label %65

38:                                               ; preds = %25
  %39 = getelementptr inbounds nuw i8, ptr %0, i64 88
  %40 = load ptr, ptr %39, align 8, !tbaa !73
  %41 = zext nneg i32 %23 to i64
  %42 = shl nuw nsw i64 %41, 2
  %43 = call ptr %40(i64 noundef %42) #6
  %.not = icmp eq ptr %43, null
  br i1 %.not, label %44, label %48

44:                                               ; preds = %38
  %45 = getelementptr inbounds nuw i8, ptr %0, i64 56
  %46 = load ptr, ptr %45, align 8, !tbaa !54
  %47 = call i32 %46(ptr noundef nonnull %0, i32 noundef 1) #6
  br label %65

48:                                               ; preds = %38
  %49 = load ptr, ptr %4, align 8, !tbaa !35
  %50 = getelementptr inbounds nuw i8, ptr %49, i64 8
  %51 = load ptr, ptr %50, align 8, !tbaa !72
  %52 = load i32, ptr %49, align 8, !tbaa !68
  %53 = sext i32 %52 to i64
  %54 = shl nsw i64 %53, 2
  call void @llvm.memcpy.p0.p0.i64(ptr nonnull align 4 %43, ptr align 4 %51, i64 %54, i1 false)
  %55 = load ptr, ptr %4, align 8, !tbaa !35
  %56 = load i32, ptr %55, align 8, !tbaa !68
  %57 = getelementptr inbounds nuw i8, ptr %0, i64 48
  %58 = load ptr, ptr %57, align 8, !tbaa !46
  %59 = sext i32 %56 to i64
  %60 = shl nsw i64 %59, 2
  %61 = getelementptr inbounds nuw i8, ptr %0, i64 176
  %62 = call i32 %58(ptr noundef nonnull %0, ptr noundef nonnull %43, i64 noundef %60, ptr noundef nonnull %61) #6
  %63 = getelementptr inbounds nuw i8, ptr %0, i64 96
  %64 = load ptr, ptr %63, align 8, !tbaa !74
  call void %64(ptr noundef nonnull %43) #6
  br label %65

65:                                               ; preds = %44, %48, %save_attr_sz.exit, %21, %29
  %.1 = phi i32 [ %37, %29 ], [ 0, %21 ], [ %.0.i, %save_attr_sz.exit ], [ %47, %44 ], [ %62, %48 ]
  ret i32 %.1
}